target datalayout = "e-m:e-p270:32:32-p271:32:32-p272:64:64-i64:64-i128:128-f80:128-n8:16:32:64-S128"
target triple = "x86_64-pc-linux-gnu"

%union.av_intfloat32 = type { i32 }

; Function Attrs: alwaysinline nounwind willreturn memory(none) uwtable
define internal i32 @av_bswap32(i32 noundef %0) #6 {
  %2 = alloca i32, align 4
  store i32 %0, ptr %2, align 4, !tbaa !30
  %3 = load i32, ptr %2, align 4, !tbaa !30
  %4 = shl i32 %3, 8
  %5 = and i32 %4, 65280
  %6 = load i32, ptr %2, align 4, !tbaa !30
  %7 = lshr i32 %6, 8
  %8 = and i32 %7, 255
  %9 = or i32 %5, %8
  %10 = shl i32 %9, 16
  %11 = load i32, ptr %2, align 4, !tbaa !30
  %12 = lshr i32 %11, 16
  %13 = shl i32 %12, 8
  %14 = and i32 %13, 65280
  %15 = load i32, ptr %2, align 4, !tbaa !30
  %16 = lshr i32 %15, 16
  %17 = lshr i32 %16, 8
  %18 = and i32 %17, 255
  %19 = or i32 %14, %18
  %20 = or i32 %10, %19
  ret i32 %20
}

; Function Attrs: alwaysinline nounwind uwtable
define internal i32 @av_float2int(float noundef %0) #3 {
  %2 = alloca float, align 4
  %3 = alloca %union.av_intfloat32, align 4
  store float %0, ptr %2, align 4, !tbaa !121
  call void @llvm.lifetime.start.p0(i64 4, ptr %3) #8
  %4 = load float, ptr %2, align 4, !tbaa !121
  store float %4, ptr %3, align 4, !tbaa !51
  %5 = load i32, ptr %3, align 4, !tbaa !51
  call void @llvm.lifetime.end.p0(i64 4, ptr %3) #8
  ret i32 %5
}

; Function Attrs: alwaysinline nounwind willreturn memory(none) uwtable
define internal signext i16 @av_clip_int16_c(i32 noundef %0) #6 {
  %2 = alloca i16, align 2
  %3 = alloca i32, align 4
  store i32 %0, ptr %3, align 4, !tbaa !30
  %4 = load i32, ptr %3, align 4, !tbaa !30
  %5 = add i32 %4, 32768
  %6 = and i32 %5, -65536
  %7 = icmp ne i32 %6, 0
  br i1 %7, label %8, label %13

8:                                                ; preds = %1
  %9 = load i32, ptr %3, align 4, !tbaa !30
  %10 = ashr i32 %9, 31
  %11 = xor i32 %10, 32767
  %12 = trunc i32 %11 to i16
  store i16 %12, ptr %2, align 2
  br label %16

13:                                               ; preds = %1
  %14 = load i32, ptr %3, align 4, !tbaa !30
  %15 = trunc i32 %14 to i16
  store i16 %15, ptr %2, align 2
  br label %16

16:                                               ; preds = %13, %8
  %17 = load i16, ptr %2, align 2
  ret i16 %17
}

; Function Attrs: alwaysinline nounwind uwtable
define internal void @yuv2planeX_float_bswap_c_template(ptr noundef %0, i32 noundef %1, ptr noundef %2, ptr noundef %3, i32 noundef %4) #3 {
  %6 = alloca ptr, align 8
  %7 = alloca i32, align 4
  %8 = alloca ptr, align 8
  %9 = alloca ptr, align 8
  %10 = alloca i32, align 4
  %11 = alloca i32, align 4
  %12 = alloca i32, align 4
  %13 = alloca i32, align 4
  %14 = alloca i16, align 2
  store ptr %0, ptr %6, align 8, !tbaa !45
  store i32 %1, ptr %7, align 4, !tbaa !30
  store ptr %2, ptr %8, align 8, !tbaa !59
  store ptr %3, ptr %9, align 8, !tbaa !61
  store i32 %4, ptr %10, align 4, !tbaa !30
  call void @llvm.lifetime.start.p0(i64 4, ptr %11) #8
  call void @llvm.lifetime.start.p0(i64 4, ptr %12) #8
  call void @llvm.lifetime.start.p0(i64 4, ptr %13) #8
  call void @llvm.lifetime.start.p0(i64 2, ptr %14) #8
  store i32 0, ptr %11, align 4, !tbaa !30
  br label %15

15:                                               ; preds = %62, %5
  %16 = load i32, ptr %11, align 4, !tbaa !30
  %17 = load i32, ptr %10, align 4, !tbaa !30
  %18 = icmp slt i32 %16, %17
  br i1 %18, label %19, label %65

19:                                               ; preds = %15
  store i32 -1073725440, ptr %13, align 4, !tbaa !30
  store i32 0, ptr %12, align 4, !tbaa !30
  br label %20

20:                                               ; preds = %43, %19
  %21 = load i32, ptr %12, align 4, !tbaa !30
  %22 = load i32, ptr %7, align 4, !tbaa !30
  %23 = icmp slt i32 %21, %22
  br i1 %23, label %24, label %46

24:                                               ; preds = %20
  %25 = load ptr, ptr %8, align 8, !tbaa !59
  %26 = load i32, ptr %12, align 4, !tbaa !30
  %27 = sext i32 %26 to i64
  %28 = getelementptr inbounds ptr, ptr %25, i64 %27
  %29 = load ptr, ptr %28, align 8, !tbaa !61
  %30 = load i32, ptr %11, align 4, !tbaa !30
  %31 = sext i32 %30 to i64
  %32 = getelementptr inbounds i32, ptr %29, i64 %31
  %33 = load i32, ptr %32, align 4, !tbaa !30
  %34 = load ptr, ptr %6, align 8, !tbaa !45
  %35 = load i32, ptr %12, align 4, !tbaa !30
  %36 = sext i32 %35 to i64
  %37 = getelementptr inbounds i16, ptr %34, i64 %36
  %38 = load i16, ptr %37, align 2, !tbaa !49
  %39 = sext i16 %38 to i32
  %40 = mul i32 %33, %39
  %41 = load i32, ptr %13, align 4, !tbaa !30
  %42 = add i32 %41, %40
  store i32 %42, ptr %13, align 4, !tbaa !30
  br label %43

43:                                               ; preds = %24
  %44 = load i32, ptr %12, align 4, !tbaa !30
  %45 = add nsw i32 %44, 1
  store i32 %45, ptr %12, align 4, !tbaa !30
  br label %20, !llvm.loop !119

46:                                               ; preds = %20
  %47 = load i32, ptr %13, align 4, !tbaa !30
  %48 = ashr i32 %47, 15
  %49 = call signext i16 @av_clip_int16_c(i32 noundef %48) #10
  %50 = sext i16 %49 to i32
  %51 = add nsw i32 32768, %50
  %52 = trunc i32 %51 to i16
  store i16 %52, ptr %14, align 2, !tbaa !51
  %53 = load i16, ptr %14, align 2, !tbaa !49
  %54 = uitofp i16 %53 to float
  %55 = fmul nsz float 0x3EF0001000000000, %54
  %56 = call i32 @av_float2int(float noundef %55)
  %57 = call i32 @av_bswap32(i32 noundef %56) #10
  %58 = load ptr, ptr %9, align 8, !tbaa !61
  %59 = load i32, ptr %11, align 4, !tbaa !30
  %60 = sext i32 %59 to i64
  %61 = getelementptr inbounds i32, ptr %58, i64 %60
  store i32 %57, ptr %61, align 4, !tbaa !30
  br label %62

62:                                               ; preds = %46
  %63 = load i32, ptr %11, align 4, !tbaa !30
  %64 = add nsw i32 %63, 1
  store i32 %64, ptr %11, align 4, !tbaa !30
  br label %15, !llvm.loop !120

65:                                               ; preds = %15
  call void @llvm.lifetime.end.p0(i64 2, ptr %14) #8
  call void @llvm.lifetime.end.p0(i64 4, ptr %13) #8
  call void @llvm.lifetime.end.p0(i64 4, ptr %12) #8
  call void @llvm.lifetime.end.p0(i64 4, ptr %11) #8
  ret void
}

; Function Attrs: nounwind uwtable
define internal void @yuv2planeX_floatBE_c(ptr noundef %0, i32 noundef %1, ptr noundef %2, ptr noundef %3, i32 noundef %4, ptr noundef %5, i32 noundef %6) #4 {
  %8 = alloca ptr, align 8
  %9 = alloca i32, align 4
  %10 = alloca ptr, align 8
  %11 = alloca ptr, align 8
  %12 = alloca i32, align 4
  %13 = alloca ptr, align 8
  %14 = alloca i32, align 4
  store ptr %0, ptr %8, align 8, !tbaa !45
  store i32 %1, ptr %9, align 4, !tbaa !30
  store ptr %2, ptr %10, align 8, !tbaa !47
  store ptr %3, ptr %11, align 8, !tbaa !46
  store i32 %4, ptr %12, align 4, !tbaa !30
  store ptr %5, ptr %13, align 8, !tbaa !46
  store i32 %6, ptr %14, align 4, !tbaa !30
  %15 = load ptr, ptr %8, align 8, !tbaa !45
  %16 = load i32, ptr %9, align 4, !tbaa !30
  %17 = load ptr, ptr %10, align 8, !tbaa !47
  %18 = load ptr, ptr %11, align 8, !tbaa !46
  %19 = load i32, ptr %12, align 4, !tbaa !30
  call void @yuv2planeX_float_bswap_c_template(ptr noundef %15, i32 noundef %16, ptr noundef %17, ptr noundef %18, i32 noundef %19)
  ret void
}