; Function Attrs: nofree norecurse nosync nounwind memory(read, argmem: readwrite, inaccessiblemem: none) uwtable
define internal void @yuv2planeX_floatBE_c(ptr noundef readonly captures(none) %0, i32 noundef %1, ptr noundef readonly captures(none) %2, ptr noundef writeonly captures(none) %3, i32 noundef %4, ptr readnone captures(none) %5, i32 %6) #3 {
  %8 = icmp sgt i32 %4, 0
  br i1 %8, label %.preheader.lr.ph, label %yuv2planeX_float_bswap_c_template.exit

.preheader.lr.ph:                                 ; preds = %7
  %9 = icmp sgt i32 %1, 0
  %wide.trip.count13 = zext nneg i32 %4 to i64
  br i1 %9, label %.preheader.us.preheader, label %.preheader.preheader

.preheader.preheader:                             ; preds = %.preheader.lr.ph
  %10 = shl nuw nsw i64 %wide.trip.count13, 2
  tail call void @llvm.memset.p0.i64(ptr align 4 %3, i8 0, i64 %10, i1 false), !tbaa !49
  br label %yuv2planeX_float_bswap_c_template.exit

.preheader.us.preheader:                          ; preds = %.preheader.lr.ph
  %wide.trip.count = zext nneg i32 %1 to i64
  br label %.preheader.us

.preheader.us:                                    ; preds = %.preheader.us.preheader, %._crit_edge.us
  %indvars.iv10 = phi i64 [ 0, %.preheader.us.preheader ], [ %indvars.iv.next11, %._crit_edge.us ]
  br label %11

11:                                               ; preds = %.preheader.us, %11
  %indvars.iv = phi i64 [ 0, %.preheader.us ], [ %indvars.iv.next, %11 ]
  %.015.i5.us = phi i32 [ -1073725440, %.preheader.us ], [ %20, %11 ]
  %12 = getelementptr inbounds nuw ptr, ptr %2, i64 %indvars.iv
  %13 = load ptr, ptr %12, align 8, !tbaa !48
  %14 = getelementptr inbounds nuw i32, ptr %13, i64 %indvars.iv10
  %15 = load i32, ptr %14, align 4, !tbaa !49
  %16 = getelementptr inbounds nuw i16, ptr %0, i64 %indvars.iv
  %17 = load i16, ptr %16, align 2, !tbaa !39
  %18 = sext i16 %17 to i32
  %19 = mul i32 %15, %18
  %20 = add i32 %19, %.015.i5.us
  %indvars.iv.next = add nuw nsw i64 %indvars.iv, 1
  %exitcond.not = icmp eq i64 %indvars.iv.next, %wide.trip.count
  br i1 %exitcond.not, label %._crit_edge.us, label %11, !llvm.loop !58

._crit_edge.us:                                   ; preds = %11
  %21 = ashr i32 %20, 15
  %22 = tail call i32 @llvm.smax.i32(i32 %21, i32 -32768)
  %23 = tail call i32 @llvm.smin.i32(i32 %22, i32 32767)
  %.0.i.i.us = trunc nsw i32 %23 to i16
  %24 = xor i16 %.0.i.i.us, -32768
  %25 = uitofp i16 %24 to float
  %26 = fmul nsz float %25, 0x3EF0001000000000
  %27 = bitcast float %26 to i32
  %28 = tail call i32 @llvm.bswap.i32(i32 %27)
  %29 = getelementptr inbounds nuw i32, ptr %3, i64 %indvars.iv10
  store i32 %28, ptr %29, align 4, !tbaa !49
  %indvars.iv.next11 = add nuw nsw i64 %indvars.iv10, 1
  %exitcond14.not = icmp eq i64 %indvars.iv.next11, %wide.trip.count13
  br i1 %exitcond14.not, label %yuv2planeX_float_bswap_c_template.exit, label %.preheader.us, !llvm.loop !59

yuv2planeX_float_bswap_c_template.exit:           ; preds = %._crit_edge.us, %.preheader.preheader, %7
  ret void
}